

Microchip MPLAB XC8 Assembler V2.40 build 20220703182018 
                                                                                               Fri Nov 04 15:17:09 2022

Microchip MPLAB XC8 C Compiler v2.40 (Free license) build 20220703182018 Og1 
     1                           	processor	18F67K40
     2                           	fnconf	rparam,??,?,0
     3                           	pagewidth 120
     4                           	opt	flic
     5                           	psect	cinit,global,reloc=2,class=CODE,delta=1
     6                           	psect	bssCOMRAM,global,class=COMRAM,space=1,delta=1,lowdata,noexec
     7                           	psect	cstackCOMRAM,global,class=COMRAM,space=1,delta=1,lowdata,noexec
     8                           	psect	text0,global,reloc=2,class=CODE,delta=1
     9                           	psect	text1,global,reloc=2,class=CODE,delta=1
    10                           	psect	text2,global,reloc=2,class=CODE,delta=1
    11                           	psect	text3,global,reloc=2,class=CODE,delta=1
    12                           	psect	text4,global,reloc=2,class=CODE,delta=1
    13                           	psect	text5,global,reloc=2,class=CODE,delta=1
    14                           	psect	text6,global,reloc=2,class=CODE,delta=1
    15                           	psect	text7,global,reloc=2,class=CODE,delta=1
    16                           	psect	text8,global,reloc=2,class=CODE,delta=1
    17                           	psect	intcode,global,reloc=2,class=CODE,delta=1
    18                           	psect	intsave_regs,global,class=BIGRAM,space=1,delta=1,noexec
    19                           	psect	rparam,global,class=COMRAM,space=1,delta=1,noexec
    20                           	psect	temp,global,ovrld,common,class=COMRAM,space=1,delta=1
    21                           	psect	idloc,global,abs,ovrld,class=IDLOC,space=5,delta=1,noexec
    22                           	psect	config,global,abs,ovrld,class=CONFIG,space=4,delta=1,noexec
    23   000000                     
    24                           ; Version 2.35
    25                           ; Generated 05/05/2021 GMT
    26                           ; 
    27                           ; Copyright © 2021, Microchip Technology Inc. and its subsidiaries ("Microchip")
    28                           ; All rights reserved.
    29                           ; 
    30                           ; This software is developed by Microchip Technology Inc. and its subsidiaries ("Microch
      +                          ip").
    31                           ; 
    32                           ; Redistribution and use in source and binary forms, with or without modification, are
    33                           ; permitted provided that the following conditions are met:
    34                           ; 
    35                           ;     1. Redistributions of source code must retain the above copyright notice, this lis
      +                          t of
    36                           ;        conditions and the following disclaimer.
    37                           ; 
    38                           ;     2. Redistributions in binary form must reproduce the above copyright notice, this 
      +                          list
    39                           ;        of conditions and the following disclaimer in the documentation and/or other
    40                           ;        materials provided with the distribution. Publication is not required when
    41                           ;        this file is used in an embedded application.
    42                           ; 
    43                           ;     3. Microchip's name may not be used to endorse or promote products derived from th
      +                          is
    44                           ;        software without specific prior written permission.
    45                           ; 
    46                           ; THIS SOFTWARE IS PROVIDED BY MICROCHIP "AS IS" AND ANY EXPRESS OR IMPLIED WARRANTIES,
    47                           ; INCLUDING, BUT NOT LIMITED TO, THE IMPLIED WARRANTIES OF MERCHANTABILITY AND FITNESS F
      +                          OR
    48                           ; PURPOSE ARE DISCLAIMED.  IN NO EVENT SHALL MICROCHIP BE LIABLE FOR ANY DIRECT, INDIREC
      +                          T,
    49                           ; INCIDENTAL, SPECIAL, EXEMPLARY, OR CONSEQUENTIAL DAMAGES (INCLUDING BUT NOT LIMITED TO
    50                           ; PROCUREMENT OF SUBSTITUTE GOODS OR SERVICES; LOSS OF USE, DATA OR PROFITS; OR BUSINESS
    51                           ; INTERRUPTION) HOWSOEVER CAUSED AND ON ANY THEORY OF LIABILITY, WHETHER IN CONTRACT, ST
      +                          RICT
    52                           ; LIABILITY, OR TORT (INCLUDING NEGLIGENCE OR OTHERWISE) ARISING IN ANY WAY OUT OF THE U
      +                          SE OF
    53                           ; THIS SOFTWARE, EVEN IF ADVISED OF THE POSSIBILITY OF SUCH DAMAGE.
    54                           ; 
    55                           ; 
    56                           ; Code-generator required, PIC18F67K40 Definitions
    57                           ; 
    58                           ; SFR Addresses
    59   000000                     _T0CON0bits	set	4053
    60   000000                     _T0CON1bits	set	4054
    61   000000                     _CM1CON1bits	set	3793
    62   000000                     _LATHbits	set	3968
    63   000000                     _ANSELAbits	set	3730
    64   000000                     _TRISAbits	set	3969
    65   000000                     _TMR0IE	set	29005
    66   000000                     _TRISBbits	set	3970
    67   000000                     _TRISFbits	set	3974
    68   000000                     _TRISGbits	set	3975
    69   000000                     _ANSELFbits	set	3764
    70   000000                     _ADREFbits	set	3928
    71   000000                     _ADPCH	set	3935
    72   000000                     _ADRESH	set	3940
    73   000000                     _ADCON0bits	set	3936
    74   000000                     _LATAbits	set	3961
    75   000000                     _LATGbits	set	3967
    76   000000                     _TMR0L	set	4051
    77   000000                     _TMR0H	set	4052
    78   000000                     _INTCONbits	set	4082
    79   000000                     _TRISHbits	set	3976
    80   000000                     _LATBbits	set	3962
    81   000000                     _LATFbits	set	3966
    82   000000                     _DAC1CON0bits	set	3782
    83   000000                     _CM1CON0bits	set	3792
    84   000000                     _CM1NCHbits	set	3794
    85   000000                     _DAC1CON1bits	set	3783
    86   000000                     _CM1PCHbits	set	3795
    87   000000                     _TMR0IF	set	29085
    88   000000                     _PIR2bits	set	3637
    89                           
    90                           ; #config settings
    91                           
    92                           	psect	cinit
    93   000210                     __pcinit:
    94                           	callstack 0
    95   000210                     start_initialization:
    96                           	callstack 0
    97   000210                     __initialization:
    98                           	callstack 0
    99                           
   100                           ; Clear objects allocated to COMRAM (2 bytes)
   101   000210  6A05               	clrf	(__pbssCOMRAM+1)& (0+255),c
   102   000212  6A04               	clrf	__pbssCOMRAM& (0+255),c
   103   000214                     end_of_initialization:
   104                           	callstack 0
   105   000214                     __end_of__initialization:
   106                           	callstack 0
   107   000214  9006               	bcf	int$flags,0,c	;clear compiler interrupt flag (level 1)
   108   000216  9206               	bcf	int$flags,1,c	;clear compiler interrupt flag (level 2)
   109   000218  0100               	movlb	0
   110   00021A  EFA5  F000         	goto	_main	;jump to C main() function
   111                           
   112                           	psect	bssCOMRAM
   113   000004                     __pbssCOMRAM:
   114                           	callstack 0
   115   000004                     _hour:
   116                           	callstack 0
   117   000004                     	ds	2
   118                           
   119                           	psect	cstackCOMRAM
   120   000001                     __pcstackCOMRAM:
   121                           	callstack 0
   122   000001                     ??_HighISR:
   123   000001                     
   124                           ; 1 bytes @ 0x0
   125   000001                     	ds	1
   126   000002                     LEDarray_disp_bin@number:
   127                           	callstack 0
   128                           
   129                           ; 2 bytes @ 0x1
   130   000002                     	ds	2
   131   000004                     
   132                           ; 1 bytes @ 0x3
   133 ;;
   134 ;;Main: autosize = 0, tempsize = 0, incstack = 0, save=0
   135 ;;
   136 ;; *************** function _main *****************
   137 ;; Defined at:
   138 ;;		line 19 in file "../main.c"
   139 ;; Parameters:    Size  Location     Type
   140 ;;		None
   141 ;; Auto vars:     Size  Location     Type
   142 ;;		None
   143 ;; Return value:  Size  Location     Type
   144 ;;                  1    wreg      void 
   145 ;; Registers used:
   146 ;;		wreg, status,2, cstack
   147 ;; Tracked objects:
   148 ;;		On entry : 0/0
   149 ;;		On exit  : 0/0
   150 ;;		Unchanged: 0/0
   151 ;; Data sizes:     COMRAM   BANK0   BANK1   BANK2   BANK3   BANK4   BANK5   BANK6   BANK7   BANK8   BANK9  BANK10  BANK1
      +1  BANK12  BANK13
   152 ;;      Params:         0       0       0       0       0       0       0       0       0       0       0       0       
      +0       0       0
   153 ;;      Locals:         0       0       0       0       0       0       0       0       0       0       0       0       
      +0       0       0
   154 ;;      Temps:          0       0       0       0       0       0       0       0       0       0       0       0       
      +0       0       0
   155 ;;      Totals:         0       0       0       0       0       0       0       0       0       0       0       0       
      +0       0       0
   156 ;;Total ram usage:        0 bytes
   157 ;; Hardware stack levels required when called: 3
   158 ;; This function calls:
   159 ;;		_ADC_init
   160 ;;		_Comp1_init
   161 ;;		_Interrupts_init
   162 ;;		_LEDarray_disp_bin
   163 ;;		_LEDarray_init
   164 ;;		_Light_init
   165 ;;		_Timer0_init
   166 ;; This function is called by:
   167 ;;		Startup code after reset
   168 ;; This function uses a non-reentrant model
   169 ;;
   170                           
   171                           	psect	text0
   172   00014A                     __ptext0:
   173                           	callstack 0
   174   00014A                     _main:
   175                           	callstack 28
   176   00014A                     
   177                           ;../main.c: 21:     Timer0_init();
   178   00014A  ECE1  F000         	call	_Timer0_init	;wreg free
   179   00014E                     
   180                           ;../main.c: 22:     LEDarray_init();
   181   00014E  ECD0  F000         	call	_LEDarray_init	;wreg free
   182   000152                     
   183                           ;../main.c: 23:     Interrupts_init();
   184   000152  EC0F  F001         	call	_Interrupts_init	;wreg free
   185   000156                     
   186                           ;../main.c: 24:     LEDarray_init();
   187   000156  ECD0  F000         	call	_LEDarray_init	;wreg free
   188   00015A                     
   189                           ;../main.c: 25:     Comp1_init();
   190   00015A  ECBD  F000         	call	_Comp1_init	;wreg free
   191                           
   192                           ;../main.c: 26:     Light_init();
   193   00015E  EC14  F001         	call	_Light_init	;wreg free
   194   000162                     
   195                           ;../main.c: 27:     ADC_init();
   196   000162  ECF1  F000         	call	_ADC_init	;wreg free
   197   000166                     l1014:
   198                           
   199                           ;../main.c: 30:         LEDarray_disp_bin(hour);
   200   000166  C004  F002         	movff	_hour,LEDarray_disp_bin@number
   201   00016A  C005  F003         	movff	_hour+1,LEDarray_disp_bin@number+1
   202   00016E  EC41  F000         	call	_LEDarray_disp_bin	;wreg free
   203   000172  EFB3  F000         	goto	l1014
   204   000176  EF3F  F000         	goto	start
   205   00017A                     __end_of_main:
   206                           	callstack 0
   207                           
   208 ;; *************** function _Timer0_init *****************
   209 ;; Defined at:
   210 ;;		line 7 in file "../timers.c"
   211 ;; Parameters:    Size  Location     Type
   212 ;;		None
   213 ;; Auto vars:     Size  Location     Type
   214 ;;		None
   215 ;; Return value:  Size  Location     Type
   216 ;;                  1    wreg      void 
   217 ;; Registers used:
   218 ;;		wreg, status,2
   219 ;; Tracked objects:
   220 ;;		On entry : 0/0
   221 ;;		On exit  : 0/0
   222 ;;		Unchanged: 0/0
   223 ;; Data sizes:     COMRAM   BANK0   BANK1   BANK2   BANK3   BANK4   BANK5   BANK6   BANK7   BANK8   BANK9  BANK10  BANK1
      +1  BANK12  BANK13
   224 ;;      Params:         0       0       0       0       0       0       0       0       0       0       0       0       
      +0       0       0
   225 ;;      Locals:         0       0       0       0       0       0       0       0       0       0       0       0       
      +0       0       0
   226 ;;      Temps:          0       0       0       0       0       0       0       0       0       0       0       0       
      +0       0       0
   227 ;;      Totals:         0       0       0       0       0       0       0       0       0       0       0       0       
      +0       0       0
   228 ;;Total ram usage:        0 bytes
   229 ;; Hardware stack levels used: 1
   230 ;; Hardware stack levels required when called: 1
   231 ;; This function calls:
   232 ;;		Nothing
   233 ;; This function is called by:
   234 ;;		_main
   235 ;; This function uses a non-reentrant model
   236 ;;
   237                           
   238                           	psect	text1
   239   0001C2                     __ptext1:
   240                           	callstack 0
   241   0001C2                     _Timer0_init:
   242                           	callstack 29
   243   0001C2                     
   244                           ;../timers.c: 9:     T0CON1bits.T0CS=0b010;
   245   0001C2  50D6               	movf	214,w,c	;volatile
   246   0001C4  0B1F               	andlw	-225
   247   0001C6  0940               	iorlw	64
   248   0001C8  6ED6               	movwf	214,c	;volatile
   249   0001CA                     
   250                           ;../timers.c: 10:     T0CON1bits.T0ASYNC=1;
   251   0001CA  88D6               	bsf	214,4,c	;volatile
   252                           
   253                           ;../timers.c: 11:     T0CON1bits.T0CKPS=0b1000;
   254   0001CC  50D6               	movf	214,w,c	;volatile
   255   0001CE  0BF0               	andlw	-16
   256   0001D0  0908               	iorlw	8
   257   0001D2  6ED6               	movwf	214,c	;volatile
   258   0001D4                     
   259                           ;../timers.c: 12:     T0CON0bits.T016BIT=1;
   260   0001D4  88D5               	bsf	213,4,c	;volatile
   261                           
   262                           ;../timers.c: 15:     TMR0H=0b00001011;
   263   0001D6  0E0B               	movlw	11
   264   0001D8  6ED4               	movwf	212,c	;volatile
   265                           
   266                           ;../timers.c: 16:     TMR0L=0b00001011;
   267   0001DA  0E0B               	movlw	11
   268   0001DC  6ED3               	movwf	211,c	;volatile
   269   0001DE                     
   270                           ;../timers.c: 17:     T0CON0bits.T0EN=1;
   271   0001DE  8ED5               	bsf	213,7,c	;volatile
   272   0001E0  0012               	return		;funcret
   273   0001E2                     __end_of_Timer0_init:
   274                           	callstack 0
   275                           
   276 ;; *************** function _Light_init *****************
   277 ;; Defined at:
   278 ;;		line 8 in file "../comparator.c"
   279 ;; Parameters:    Size  Location     Type
   280 ;;		None
   281 ;; Auto vars:     Size  Location     Type
   282 ;;		None
   283 ;; Return value:  Size  Location     Type
   284 ;;                  1    wreg      void 
   285 ;; Registers used:
   286 ;;		None
   287 ;; Tracked objects:
   288 ;;		On entry : 0/0
   289 ;;		On exit  : 0/0
   290 ;;		Unchanged: 0/0
   291 ;; Data sizes:     COMRAM   BANK0   BANK1   BANK2   BANK3   BANK4   BANK5   BANK6   BANK7   BANK8   BANK9  BANK10  BANK1
      +1  BANK12  BANK13
   292 ;;      Params:         0       0       0       0       0       0       0       0       0       0       0       0       
      +0       0       0
   293 ;;      Locals:         0       0       0       0       0       0       0       0       0       0       0       0       
      +0       0       0
   294 ;;      Temps:          0       0       0       0       0       0       0       0       0       0       0       0       
      +0       0       0
   295 ;;      Totals:         0       0       0       0       0       0       0       0       0       0       0       0       
      +0       0       0
   296 ;;Total ram usage:        0 bytes
   297 ;; Hardware stack levels used: 1
   298 ;; Hardware stack levels required when called: 1
   299 ;; This function calls:
   300 ;;		Nothing
   301 ;; This function is called by:
   302 ;;		_main
   303 ;; This function uses a non-reentrant model
   304 ;;
   305                           
   306                           	psect	text2
   307   000228                     __ptext2:
   308                           	callstack 0
   309   000228                     _Light_init:
   310                           	callstack 29
   311   000228                     
   312                           ;../comparator.c: 10:    LATHbits.LATH3=0;
   313   000228  9680               	bcf	128,3,c	;volatile
   314                           
   315                           ;../comparator.c: 11:    TRISHbits.TRISH3=0;
   316   00022A  9688               	bcf	136,3,c	;volatile
   317   00022C  0012               	return		;funcret
   318   00022E                     __end_of_Light_init:
   319                           	callstack 0
   320                           
   321 ;; *************** function _LEDarray_init *****************
   322 ;; Defined at:
   323 ;;		line 8 in file "../LEDarray.c"
   324 ;; Parameters:    Size  Location     Type
   325 ;;		None
   326 ;; Auto vars:     Size  Location     Type
   327 ;;		None
   328 ;; Return value:  Size  Location     Type
   329 ;;                  1    wreg      void 
   330 ;; Registers used:
   331 ;;		None
   332 ;; Tracked objects:
   333 ;;		On entry : 0/0
   334 ;;		On exit  : 0/0
   335 ;;		Unchanged: 0/0
   336 ;; Data sizes:     COMRAM   BANK0   BANK1   BANK2   BANK3   BANK4   BANK5   BANK6   BANK7   BANK8   BANK9  BANK10  BANK1
      +1  BANK12  BANK13
   337 ;;      Params:         0       0       0       0       0       0       0       0       0       0       0       0       
      +0       0       0
   338 ;;      Locals:         0       0       0       0       0       0       0       0       0       0       0       0       
      +0       0       0
   339 ;;      Temps:          0       0       0       0       0       0       0       0       0       0       0       0       
      +0       0       0
   340 ;;      Totals:         0       0       0       0       0       0       0       0       0       0       0       0       
      +0       0       0
   341 ;;Total ram usage:        0 bytes
   342 ;; Hardware stack levels used: 1
   343 ;; Hardware stack levels required when called: 1
   344 ;; This function calls:
   345 ;;		Nothing
   346 ;; This function is called by:
   347 ;;		_main
   348 ;; This function uses a non-reentrant model
   349 ;;
   350                           
   351                           	psect	text3
   352   0001A0                     __ptext3:
   353                           	callstack 0
   354   0001A0                     _LEDarray_init:
   355                           	callstack 29
   356   0001A0                     
   357                           ;../LEDarray.c: 9:     TRISGbits.TRISG0 = 0;
   358   0001A0  9087               	bcf	135,0,c	;volatile
   359                           
   360                           ;../LEDarray.c: 10:     TRISGbits.TRISG1 = 0;
   361   0001A2  9287               	bcf	135,1,c	;volatile
   362                           
   363                           ;../LEDarray.c: 11:     TRISAbits.TRISA2 = 0;
   364   0001A4  9481               	bcf	129,2,c	;volatile
   365                           
   366                           ;../LEDarray.c: 12:     TRISFbits.TRISF6 = 0;
   367   0001A6  9C86               	bcf	134,6,c	;volatile
   368                           
   369                           ;../LEDarray.c: 13:     TRISAbits.TRISA4 = 0;
   370   0001A8  9881               	bcf	129,4,c	;volatile
   371                           
   372                           ;../LEDarray.c: 14:     TRISAbits.TRISA5 = 0;
   373   0001AA  9A81               	bcf	129,5,c	;volatile
   374                           
   375                           ;../LEDarray.c: 15:     TRISFbits.TRISF0 = 0;
   376   0001AC  9086               	bcf	134,0,c	;volatile
   377                           
   378                           ;../LEDarray.c: 16:     TRISBbits.TRISB0 = 0;
   379   0001AE  9082               	bcf	130,0,c	;volatile
   380                           
   381                           ;../LEDarray.c: 18:     LATGbits.LATG0 = 0;
   382   0001B0  907F               	bcf	127,0,c	;volatile
   383                           
   384                           ;../LEDarray.c: 19:     LATGbits.LATG1 = 0;
   385   0001B2  927F               	bcf	127,1,c	;volatile
   386                           
   387                           ;../LEDarray.c: 20:     LATAbits.LATA2 = 0;
   388   0001B4  9479               	bcf	121,2,c	;volatile
   389                           
   390                           ;../LEDarray.c: 21:     LATFbits.LATF6 = 0;
   391   0001B6  9C7E               	bcf	126,6,c	;volatile
   392                           
   393                           ;../LEDarray.c: 22:     LATAbits.LATA4 = 0;
   394   0001B8  9879               	bcf	121,4,c	;volatile
   395                           
   396                           ;../LEDarray.c: 23:     LATAbits.LATA5 = 0;
   397   0001BA  9A79               	bcf	121,5,c	;volatile
   398                           
   399                           ;../LEDarray.c: 24:     LATFbits.LATF0 = 0;
   400   0001BC  907E               	bcf	126,0,c	;volatile
   401                           
   402                           ;../LEDarray.c: 25:     LATBbits.LATB0 = 0;
   403   0001BE  907A               	bcf	122,0,c	;volatile
   404   0001C0  0012               	return		;funcret
   405   0001C2                     __end_of_LEDarray_init:
   406                           	callstack 0
   407                           
   408 ;; *************** function _LEDarray_disp_bin *****************
   409 ;; Defined at:
   410 ;;		line 37 in file "../LEDarray.c"
   411 ;; Parameters:    Size  Location     Type
   412 ;;  number          2    1[COMRAM] unsigned int 
   413 ;; Auto vars:     Size  Location     Type
   414 ;;		None
   415 ;; Return value:  Size  Location     Type
   416 ;;                  1    wreg      void 
   417 ;; Registers used:
   418 ;;		None
   419 ;; Tracked objects:
   420 ;;		On entry : 0/0
   421 ;;		On exit  : 0/0
   422 ;;		Unchanged: 0/0
   423 ;; Data sizes:     COMRAM   BANK0   BANK1   BANK2   BANK3   BANK4   BANK5   BANK6   BANK7   BANK8   BANK9  BANK10  BANK1
      +1  BANK12  BANK13
   424 ;;      Params:         2       0       0       0       0       0       0       0       0       0       0       0       
      +0       0       0
   425 ;;      Locals:         0       0       0       0       0       0       0       0       0       0       0       0       
      +0       0       0
   426 ;;      Temps:          0       0       0       0       0       0       0       0       0       0       0       0       
      +0       0       0
   427 ;;      Totals:         2       0       0       0       0       0       0       0       0       0       0       0       
      +0       0       0
   428 ;;Total ram usage:        2 bytes
   429 ;; Hardware stack levels used: 1
   430 ;; Hardware stack levels required when called: 1
   431 ;; This function calls:
   432 ;;		Nothing
   433 ;; This function is called by:
   434 ;;		_main
   435 ;;		_LEDarray_disp_dec
   436 ;;		_LEDarray_disp_PPM
   437 ;; This function uses a non-reentrant model
   438 ;;
   439                           
   440                           	psect	text4
   441   000082                     __ptext4:
   442                           	callstack 0
   443   000082                     _LEDarray_disp_bin:
   444                           	callstack 29
   445   000082                     
   446                           ;../LEDarray.c: 38:     if (number & 0b000000001) {LATGbits.LATG0=1;} else {LATGbits.LAT
      +                          G0=0;}
   447   000082  A002               	btfss	LEDarray_disp_bin@number^0,0,c
   448   000084  EF46  F000         	goto	u191
   449   000088  EF48  F000         	goto	u190
   450   00008C                     u191:
   451   00008C  EF4B  F000         	goto	l48
   452   000090                     u190:
   453   000090  807F               	bsf	127,0,c	;volatile
   454   000092  EF4C  F000         	goto	l49
   455   000096                     l48:
   456   000096  907F               	bcf	127,0,c	;volatile
   457   000098                     l49:
   458                           
   459                           ;../LEDarray.c: 39:     if (number & 0b000000010) {LATGbits.LATG1=1;} else {LATGbits.LAT
      +                          G1=0;}
   460   000098  A202               	btfss	LEDarray_disp_bin@number^0,1,c
   461   00009A  EF51  F000         	goto	u201
   462   00009E  EF53  F000         	goto	u200
   463   0000A2                     u201:
   464   0000A2  EF56  F000         	goto	l50
   465   0000A6                     u200:
   466   0000A6  827F               	bsf	127,1,c	;volatile
   467   0000A8  EF57  F000         	goto	l51
   468   0000AC                     l50:
   469   0000AC  927F               	bcf	127,1,c	;volatile
   470   0000AE                     l51:
   471                           
   472                           ;../LEDarray.c: 40:     if (number & 0b000000100) {LATAbits.LATA2=1;} else {LATAbits.LAT
      +                          A2=0;}
   473   0000AE  A402               	btfss	LEDarray_disp_bin@number^0,2,c
   474   0000B0  EF5C  F000         	goto	u211
   475   0000B4  EF5E  F000         	goto	u210
   476   0000B8                     u211:
   477   0000B8  EF61  F000         	goto	l52
   478   0000BC                     u210:
   479   0000BC  8479               	bsf	121,2,c	;volatile
   480   0000BE  EF62  F000         	goto	l53
   481   0000C2                     l52:
   482   0000C2  9479               	bcf	121,2,c	;volatile
   483   0000C4                     l53:
   484                           
   485                           ;../LEDarray.c: 41:     if (number & 0b000001000) {LATFbits.LATF6=1;} else {LATFbits.LAT
      +                          F6=0;}
   486   0000C4  A602               	btfss	LEDarray_disp_bin@number^0,3,c
   487   0000C6  EF67  F000         	goto	u221
   488   0000CA  EF69  F000         	goto	u220
   489   0000CE                     u221:
   490   0000CE  EF6C  F000         	goto	l54
   491   0000D2                     u220:
   492   0000D2  8C7E               	bsf	126,6,c	;volatile
   493   0000D4  EF6D  F000         	goto	l55
   494   0000D8                     l54:
   495   0000D8  9C7E               	bcf	126,6,c	;volatile
   496   0000DA                     l55:
   497                           
   498                           ;../LEDarray.c: 42:     if (number & 0b000010000) {LATAbits.LATA4=1;} else {LATAbits.LAT
      +                          A4=0;}
   499   0000DA  A802               	btfss	LEDarray_disp_bin@number^0,4,c
   500   0000DC  EF72  F000         	goto	u231
   501   0000E0  EF74  F000         	goto	u230
   502   0000E4                     u231:
   503   0000E4  EF77  F000         	goto	l56
   504   0000E8                     u230:
   505   0000E8  8879               	bsf	121,4,c	;volatile
   506   0000EA  EF78  F000         	goto	l57
   507   0000EE                     l56:
   508   0000EE  9879               	bcf	121,4,c	;volatile
   509   0000F0                     l57:
   510                           
   511                           ;../LEDarray.c: 43:     if (number & 0b000100000) {LATAbits.LATA5=1;} else {LATAbits.LAT
      +                          A5=0;}
   512   0000F0  AA02               	btfss	LEDarray_disp_bin@number^0,5,c
   513   0000F2  EF7D  F000         	goto	u241
   514   0000F6  EF7F  F000         	goto	u240
   515   0000FA                     u241:
   516   0000FA  EF82  F000         	goto	l58
   517   0000FE                     u240:
   518   0000FE  8A79               	bsf	121,5,c	;volatile
   519   000100  EF83  F000         	goto	l59
   520   000104                     l58:
   521   000104  9A79               	bcf	121,5,c	;volatile
   522   000106                     l59:
   523                           
   524                           ;../LEDarray.c: 44:     if (number & 0b001000000) {LATFbits.LATF0=1;} else {LATFbits.LAT
      +                          F0=0;}
   525   000106  AC02               	btfss	LEDarray_disp_bin@number^0,6,c
   526   000108  EF88  F000         	goto	u251
   527   00010C  EF8A  F000         	goto	u250
   528   000110                     u251:
   529   000110  EF8D  F000         	goto	l60
   530   000114                     u250:
   531   000114  807E               	bsf	126,0,c	;volatile
   532   000116  EF8E  F000         	goto	l61
   533   00011A                     l60:
   534   00011A  907E               	bcf	126,0,c	;volatile
   535   00011C                     l61:
   536                           
   537                           ;../LEDarray.c: 45:     if (number & 0b010000000) {LATBbits.LATB0=1;} else {LATBbits.LAT
      +                          B0=0;}
   538   00011C  AE02               	btfss	LEDarray_disp_bin@number^0,7,c
   539   00011E  EF93  F000         	goto	u261
   540   000122  EF95  F000         	goto	u260
   541   000126                     u261:
   542   000126  EF98  F000         	goto	l62
   543   00012A                     u260:
   544   00012A  807A               	bsf	122,0,c	;volatile
   545   00012C  EF99  F000         	goto	l63
   546   000130                     l62:
   547   000130  907A               	bcf	122,0,c	;volatile
   548   000132                     l63:
   549                           
   550                           ;../LEDarray.c: 46:     if (number & 0b100000000) {LATBbits.LATB1=1;} else {LATBbits.LAT
      +                          B1=0;}
   551   000132  A003               	btfss	(LEDarray_disp_bin@number+1)^0,0,c
   552   000134  EF9E  F000         	goto	u271
   553   000138  EFA0  F000         	goto	u270
   554   00013C                     u271:
   555   00013C  EFA3  F000         	goto	l64
   556   000140                     u270:
   557   000140  827A               	bsf	122,1,c	;volatile
   558   000142  EFA4  F000         	goto	l66
   559   000146                     l64:
   560   000146  927A               	bcf	122,1,c	;volatile
   561   000148                     l66:
   562   000148  0012               	return		;funcret
   563   00014A                     __end_of_LEDarray_disp_bin:
   564                           	callstack 0
   565                           
   566 ;; *************** function _Interrupts_init *****************
   567 ;; Defined at:
   568 ;;		line 11 in file "../interrupts.c"
   569 ;; Parameters:    Size  Location     Type
   570 ;;		None
   571 ;; Auto vars:     Size  Location     Type
   572 ;;		None
   573 ;; Return value:  Size  Location     Type
   574 ;;                  1    wreg      void 
   575 ;; Registers used:
   576 ;;		None
   577 ;; Tracked objects:
   578 ;;		On entry : 0/0
   579 ;;		On exit  : 0/0
   580 ;;		Unchanged: 0/0
   581 ;; Data sizes:     COMRAM   BANK0   BANK1   BANK2   BANK3   BANK4   BANK5   BANK6   BANK7   BANK8   BANK9  BANK10  BANK1
      +1  BANK12  BANK13
   582 ;;      Params:         0       0       0       0       0       0       0       0       0       0       0       0       
      +0       0       0
   583 ;;      Locals:         0       0       0       0       0       0       0       0       0       0       0       0       
      +0       0       0
   584 ;;      Temps:          0       0       0       0       0       0       0       0       0       0       0       0       
      +0       0       0
   585 ;;      Totals:         0       0       0       0       0       0       0       0       0       0       0       0       
      +0       0       0
   586 ;;Total ram usage:        0 bytes
   587 ;; Hardware stack levels used: 1
   588 ;; Hardware stack levels required when called: 1
   589 ;; This function calls:
   590 ;;		Nothing
   591 ;; This function is called by:
   592 ;;		_main
   593 ;; This function uses a non-reentrant model
   594 ;;
   595                           
   596                           	psect	text5
   597   00021E                     __ptext5:
   598                           	callstack 0
   599   00021E                     _Interrupts_init:
   600                           	callstack 29
   601   00021E                     
   602                           ;../interrupts.c: 14:     TMR0IE=1;
   603   00021E  010E               	movlb	14	; () banked
   604   000220  8B29               	bsf	41,5,b	;volatile
   605                           
   606                           ;../interrupts.c: 15:     INTCONbits.GIEH=1;
   607   000222  8EF2               	bsf	242,7,c	;volatile
   608                           
   609                           ;../interrupts.c: 16:     INTCONbits.GIEL = 1;
   610   000224  8CF2               	bsf	242,6,c	;volatile
   611   000226                     
   612                           ; BSR set to: 14
   613   000226  0012               	return		;funcret
   614   000228                     __end_of_Interrupts_init:
   615                           	callstack 0
   616                           
   617 ;; *************** function _Comp1_init *****************
   618 ;; Defined at:
   619 ;;		line 29 in file "../comparator.c"
   620 ;; Parameters:    Size  Location     Type
   621 ;;		None
   622 ;; Auto vars:     Size  Location     Type
   623 ;;		None
   624 ;; Return value:  Size  Location     Type
   625 ;;                  1    wreg      void 
   626 ;; Registers used:
   627 ;;		wreg, status,2, cstack
   628 ;; Tracked objects:
   629 ;;		On entry : 0/0
   630 ;;		On exit  : 0/0
   631 ;;		Unchanged: 0/0
   632 ;; Data sizes:     COMRAM   BANK0   BANK1   BANK2   BANK3   BANK4   BANK5   BANK6   BANK7   BANK8   BANK9  BANK10  BANK1
      +1  BANK12  BANK13
   633 ;;      Params:         0       0       0       0       0       0       0       0       0       0       0       0       
      +0       0       0
   634 ;;      Locals:         0       0       0       0       0       0       0       0       0       0       0       0       
      +0       0       0
   635 ;;      Temps:          0       0       0       0       0       0       0       0       0       0       0       0       
      +0       0       0
   636 ;;      Totals:         0       0       0       0       0       0       0       0       0       0       0       0       
      +0       0       0
   637 ;;Total ram usage:        0 bytes
   638 ;; Hardware stack levels used: 1
   639 ;; Hardware stack levels required when called: 2
   640 ;; This function calls:
   641 ;;		_DAC_init
   642 ;; This function is called by:
   643 ;;		_main
   644 ;; This function uses a non-reentrant model
   645 ;;
   646                           
   647                           	psect	text6
   648   00017A                     __ptext6:
   649                           	callstack 0
   650   00017A                     _Comp1_init:
   651                           	callstack 28
   652   00017A                     
   653                           ;../comparator.c: 31:     TRISAbits.TRISA3=1;
   654   00017A  8681               	bsf	129,3,c	;volatile
   655   00017C                     
   656                           ;../comparator.c: 32:     CM1NCHbits.NCH=0b011;
   657   00017C  010E               	movlb	14	; () banked
   658   00017E  51D2               	movf	210,w,b	;volatile
   659   000180  0BF8               	andlw	-8
   660   000182  0903               	iorlw	3
   661   000184  6FD2               	movwf	210,b	;volatile
   662                           
   663                           ;../comparator.c: 33:     CM1PCHbits.PCH=0b101;
   664   000186  51D3               	movf	211,w,b	;volatile
   665   000188  0BF8               	andlw	-8
   666   00018A  0905               	iorlw	5
   667   00018C  6FD3               	movwf	211,b	;volatile
   668   00018E                     
   669                           ; BSR set to: 14
   670                           ;../comparator.c: 34:     CM1CON0bits.HYS=1;
   671   00018E  83D0               	bsf	208,1,b	;volatile
   672   000190                     
   673                           ; BSR set to: 14
   674                           ;../comparator.c: 35:     CM1CON0bits.POL=1;
   675   000190  89D0               	bsf	208,4,b	;volatile
   676   000192                     
   677                           ; BSR set to: 14
   678                           ;../comparator.c: 36:     CM1CON1bits.INTP=1;
   679   000192  83D1               	bsf	209,1,b	;volatile
   680   000194                     
   681                           ; BSR set to: 14
   682                           ;../comparator.c: 37:     CM1CON1bits.INTN=1;
   683   000194  81D1               	bsf	209,0,b	;volatile
   684   000196                     
   685                           ; BSR set to: 14
   686                           ;../comparator.c: 38:     DAC_init();
   687   000196  ECFE  F000         	call	_DAC_init	;wreg free
   688   00019A                     
   689                           ;../comparator.c: 39:     CM1CON0bits.EN=1;
   690   00019A  010E               	movlb	14	; () banked
   691   00019C  8FD0               	bsf	208,7,b	;volatile
   692   00019E                     
   693                           ; BSR set to: 14
   694   00019E  0012               	return		;funcret
   695   0001A0                     __end_of_Comp1_init:
   696                           	callstack 0
   697                           
   698 ;; *************** function _DAC_init *****************
   699 ;; Defined at:
   700 ;;		line 14 in file "../comparator.c"
   701 ;; Parameters:    Size  Location     Type
   702 ;;		None
   703 ;; Auto vars:     Size  Location     Type
   704 ;;		None
   705 ;; Return value:  Size  Location     Type
   706 ;;                  1    wreg      void 
   707 ;; Registers used:
   708 ;;		wreg, status,2
   709 ;; Tracked objects:
   710 ;;		On entry : 0/0
   711 ;;		On exit  : 0/0
   712 ;;		Unchanged: 0/0
   713 ;; Data sizes:     COMRAM   BANK0   BANK1   BANK2   BANK3   BANK4   BANK5   BANK6   BANK7   BANK8   BANK9  BANK10  BANK1
      +1  BANK12  BANK13
   714 ;;      Params:         0       0       0       0       0       0       0       0       0       0       0       0       
      +0       0       0
   715 ;;      Locals:         0       0       0       0       0       0       0       0       0       0       0       0       
      +0       0       0
   716 ;;      Temps:          0       0       0       0       0       0       0       0       0       0       0       0       
      +0       0       0
   717 ;;      Totals:         0       0       0       0       0       0       0       0       0       0       0       0       
      +0       0       0
   718 ;;Total ram usage:        0 bytes
   719 ;; Hardware stack levels used: 1
   720 ;; Hardware stack levels required when called: 1
   721 ;; This function calls:
   722 ;;		Nothing
   723 ;; This function is called by:
   724 ;;		_Comp1_init
   725 ;; This function uses a non-reentrant model
   726 ;;
   727                           
   728                           	psect	text7
   729   0001FC                     __ptext7:
   730                           	callstack 0
   731   0001FC                     _DAC_init:
   732                           	callstack 28
   733   0001FC                     
   734                           ;../comparator.c: 16:     DAC1CON0bits.PSS=0b00;
   735   0001FC  0EF3               	movlw	-13
   736   0001FE  010E               	movlb	14	; () banked
   737   000200  17C6               	andwf	198,f,b	;volatile
   738   000202                     
   739                           ; BSR set to: 14
   740                           ;../comparator.c: 17:     DAC1CON0bits.NSS=0b0;
   741   000202  91C6               	bcf	198,0,b	;volatile
   742                           
   743                           ;../comparator.c: 21:     DAC1CON1bits.DAC1R=27;
   744   000204  51C7               	movf	199,w,b	;volatile
   745   000206  0BE0               	andlw	-32
   746   000208  091B               	iorlw	27
   747   00020A  6FC7               	movwf	199,b	;volatile
   748   00020C                     
   749                           ; BSR set to: 14
   750                           ;../comparator.c: 22:     DAC1CON0bits.DAC1EN=1;
   751   00020C  8FC6               	bsf	198,7,b	;volatile
   752   00020E                     
   753                           ; BSR set to: 14
   754   00020E  0012               	return		;funcret
   755   000210                     __end_of_DAC_init:
   756                           	callstack 0
   757                           
   758 ;; *************** function _ADC_init *****************
   759 ;; Defined at:
   760 ;;		line 9 in file "../ADC.c"
   761 ;; Parameters:    Size  Location     Type
   762 ;;		None
   763 ;; Auto vars:     Size  Location     Type
   764 ;;		None
   765 ;; Return value:  Size  Location     Type
   766 ;;                  1    wreg      void 
   767 ;; Registers used:
   768 ;;		wreg, status,2
   769 ;; Tracked objects:
   770 ;;		On entry : 0/0
   771 ;;		On exit  : 0/0
   772 ;;		Unchanged: 0/0
   773 ;; Data sizes:     COMRAM   BANK0   BANK1   BANK2   BANK3   BANK4   BANK5   BANK6   BANK7   BANK8   BANK9  BANK10  BANK1
      +1  BANK12  BANK13
   774 ;;      Params:         0       0       0       0       0       0       0       0       0       0       0       0       
      +0       0       0
   775 ;;      Locals:         0       0       0       0       0       0       0       0       0       0       0       0       
      +0       0       0
   776 ;;      Temps:          0       0       0       0       0       0       0       0       0       0       0       0       
      +0       0       0
   777 ;;      Totals:         0       0       0       0       0       0       0       0       0       0       0       0       
      +0       0       0
   778 ;;Total ram usage:        0 bytes
   779 ;; Hardware stack levels used: 1
   780 ;; Hardware stack levels required when called: 1
   781 ;; This function calls:
   782 ;;		Nothing
   783 ;; This function is called by:
   784 ;;		_main
   785 ;; This function uses a non-reentrant model
   786 ;;
   787                           
   788                           	psect	text8
   789   0001E2                     __ptext8:
   790                           	callstack 0
   791   0001E2                     _ADC_init:
   792                           	callstack 29
   793   0001E2                     
   794                           ;../ADC.c: 11:     TRISAbits.TRISA3=1;
   795   0001E2  8681               	bsf	129,3,c	;volatile
   796                           
   797                           ;../ADC.c: 12:     ANSELAbits.ANSELA3=1;
   798   0001E4  010E               	movlb	14	; () banked
   799   0001E6  8792               	bsf	146,3,b	;volatile
   800                           
   801                           ;../ADC.c: 15:     ADREFbits.ADNREF = 0;
   802   0001E8  010F               	movlb	15	; () banked
   803   0001EA  9958               	bcf	88,4,b	;volatile
   804   0001EC                     
   805                           ; BSR set to: 15
   806                           ;../ADC.c: 16:     ADREFbits.ADPREF = 0b00;
   807   0001EC  0EFC               	movlw	-4
   808   0001EE  1758               	andwf	88,f,b	;volatile
   809                           
   810                           ;../ADC.c: 17:     ADPCH=0b11;
   811   0001F0  0E03               	movlw	3
   812   0001F2  6F5F               	movwf	95,b	;volatile
   813   0001F4                     
   814                           ; BSR set to: 15
   815                           ;../ADC.c: 18:     ADCON0bits.ADFM = 0;
   816   0001F4  9460               	bcf	96,2,c	;volatile
   817   0001F6                     
   818                           ; BSR set to: 15
   819                           ;../ADC.c: 19:     ADCON0bits.ADCS = 1;
   820   0001F6  8860               	bsf	96,4,c	;volatile
   821   0001F8                     
   822                           ; BSR set to: 15
   823                           ;../ADC.c: 20:     ADCON0bits.ADON = 1;
   824   0001F8  8E60               	bsf	96,7,c	;volatile
   825   0001FA                     
   826                           ; BSR set to: 15
   827   0001FA  0012               	return		;funcret
   828   0001FC                     __end_of_ADC_init:
   829                           	callstack 0
   830                           
   831 ;; *************** function _HighISR *****************
   832 ;; Defined at:
   833 ;;		line 23 in file "../interrupts.c"
   834 ;; Parameters:    Size  Location     Type
   835 ;;		None
   836 ;; Auto vars:     Size  Location     Type
   837 ;;		None
   838 ;; Return value:  Size  Location     Type
   839 ;;                  1    wreg      void 
   840 ;; Registers used:
   841 ;;		wreg, status,2, status,0
   842 ;; Tracked objects:
   843 ;;		On entry : 0/0
   844 ;;		On exit  : 0/0
   845 ;;		Unchanged: 0/0
   846 ;; Data sizes:     COMRAM   BANK0   BANK1   BANK2   BANK3   BANK4   BANK5   BANK6   BANK7   BANK8   BANK9  BANK10  BANK1
      +1  BANK12  BANK13
   847 ;;      Params:         0       0       0       0       0       0       0       0       0       0       0       0       
      +0       0       0
   848 ;;      Locals:         0       0       0       0       0       0       0       0       0       0       0       0       
      +0       0       0
   849 ;;      Temps:          1       0       0       0       0       0       0       0       0       0       0       0       
      +0       0       0
   850 ;;      Totals:         1       0       0       0       0       0       0       0       0       0       0       0       
      +0       0       0
   851 ;;Total ram usage:        1 bytes
   852 ;; Hardware stack levels used: 1
   853 ;; This function calls:
   854 ;;		Nothing
   855 ;; This function is called by:
   856 ;;		Interrupt level 2
   857 ;; This function uses a non-reentrant model
   858 ;;
   859                           
   860                           	psect	intcode
   861   000008                     __pintcode:
   862                           	callstack 0
   863   000008                     _HighISR:
   864                           	callstack 28
   865                           
   866                           ; BSR set to: 15
   867                           ;incstack = 0
   868   000008  8206               	bsf	int$flags,1,c	;set compiler interrupt flag (level 2)
   869   00000A                     
   870                           ;../interrupts.c: 27:     if (TMR0IF) {
   871   00000A  010E               	movlb	14	; () banked
   872   00000C  AB33               	btfss	51,5,b	;volatile
   873   00000E  EF0B  F000         	goto	i2u14_41
   874   000012  EF0D  F000         	goto	i2u14_40
   875   000016                     i2u14_41:
   876   000016  EF22  F000         	goto	i2l940
   877   00001A                     i2u14_40:
   878   00001A                     
   879                           ; BSR set to: 14
   880                           ;../interrupts.c: 28:         TMR0H=0b00001011;
   881   00001A  0E0B               	movlw	11
   882   00001C  6ED4               	movwf	212,c	;volatile
   883                           
   884                           ;../interrupts.c: 29:         TMR0L=0b00001011;
   885   00001E  0E0B               	movlw	11
   886   000020  6ED3               	movwf	211,c	;volatile
   887   000022                     
   888                           ; BSR set to: 14
   889                           ;../interrupts.c: 30:         hour += 1;
   890   000022  4A04               	infsnz	_hour^0,f,c
   891   000024  2A05               	incf	(_hour+1)^0,f,c
   892   000026                     
   893                           ; BSR set to: 14
   894                           ;../interrupts.c: 31:         if (hour==24) {hour=0;}
   895   000026  0E18               	movlw	24
   896   000028  1804               	xorwf	_hour^0,w,c
   897   00002A  1005               	iorwf	(_hour+1)^0,w,c
   898   00002C  A4D8               	btfss	status,2,c
   899   00002E  EF1B  F000         	goto	i2u15_41
   900   000032  EF1D  F000         	goto	i2u15_40
   901   000036                     i2u15_41:
   902   000036  EF21  F000         	goto	i2l938
   903   00003A                     i2u15_40:
   904   00003A                     
   905                           ; BSR set to: 14
   906   00003A  0E00               	movlw	0
   907   00003C  6E05               	movwf	(_hour+1)^0,c
   908   00003E  0E00               	movlw	0
   909   000040  6E04               	movwf	_hour^0,c
   910   000042                     i2l938:
   911                           
   912                           ; BSR set to: 14
   913                           ;../interrupts.c: 32:         TMR0IF=0;
   914   000042  9B33               	bcf	51,5,b	;volatile
   915   000044                     i2l940:
   916                           
   917                           ; BSR set to: 14
   918                           ;../interrupts.c: 35:     if (PIR2bits.C1IF){
   919   000044  A135               	btfss	53,0,b	;volatile
   920   000046  EF27  F000         	goto	i2u16_41
   921   00004A  EF29  F000         	goto	i2u16_40
   922   00004E                     i2u16_41:
   923   00004E  EF3D  F000         	goto	i2l126
   924   000052                     i2u16_40:
   925   000052                     
   926                           ; BSR set to: 14
   927                           ;../interrupts.c: 36:         LATHbits.LATH3=!LATHbits.LATH3;
   928   000052  A680               	btfss	128,3,c	;volatile
   929   000054  EF2E  F000         	goto	i2u17_41
   930   000058  EF32  F000         	goto	i2u17_40
   931   00005C                     i2u17_41:
   932   00005C  6A01               	clrf	??_HighISR^0,c
   933   00005E  2A01               	incf	??_HighISR^0,f,c
   934   000060  EF33  F000         	goto	i2u18_48
   935   000064                     i2u17_40:
   936   000064  6A01               	clrf	??_HighISR^0,c
   937   000066                     i2u18_48:
   938   000066  4601               	rlncf	??_HighISR^0,f,c
   939   000068  4601               	rlncf	??_HighISR^0,f,c
   940   00006A  4601               	rlncf	??_HighISR^0,f,c
   941   00006C  5080               	movf	128,w,c	;volatile
   942   00006E  1801               	xorwf	??_HighISR^0,w,c
   943   000070  0BF7               	andlw	-9
   944   000072  1801               	xorwf	??_HighISR^0,w,c
   945   000074  6E80               	movwf	128,c	;volatile
   946   000076                     
   947                           ;../interrupts.c: 37:         PIR2bits.C1IF=0;
   948   000076  010E               	movlb	14	; () banked
   949   000078  9135               	bcf	53,0,b	;volatile
   950   00007A                     i2l126:
   951                           
   952                           ; BSR set to: 14
   953   00007A  9206               	bcf	int$flags,1,c	;clear compiler interrupt flag (level 2)
   954   00007C  0011               	retfie		f
   955   00007E                     __end_of_HighISR:
   956                           	callstack 0
   957   000000                     
   958                           	psect	rparam
   959   000000                     
   960                           	psect	temp
   961   000006                     btemp:
   962                           	callstack 0
   963   000006                     	ds	1
   964   000000                     int$flags	set	btemp
   965   000000                     wtemp8	set	btemp+1
   966   000000                     ttemp5	set	btemp+1
   967   000000                     ttemp6	set	btemp+4
   968   000000                     ttemp7	set	btemp+8
   969                           
   970                           	psect	idloc
   971                           
   972                           ;Config register IDLOC0 @ 0x200000
   973                           ;	unspecified, using default values
   974   200000                     	org	2097152
   975   200000  0FFF               	dw	4095
   976                           
   977                           ;Config register IDLOC1 @ 0x200002
   978                           ;	unspecified, using default values
   979   200002                     	org	2097154
   980   200002  0FFF               	dw	4095
   981                           
   982                           ;Config register IDLOC2 @ 0x200004
   983                           ;	unspecified, using default values
   984   200004                     	org	2097156
   985   200004  0FFF               	dw	4095
   986                           
   987                           ;Config register IDLOC3 @ 0x200006
   988                           ;	unspecified, using default values
   989   200006                     	org	2097158
   990   200006  0FFF               	dw	4095
   991                           
   992                           ;Config register IDLOC4 @ 0x200008
   993                           ;	unspecified, using default values
   994   200008                     	org	2097160
   995   200008  0FFF               	dw	4095
   996                           
   997                           ;Config register IDLOC5 @ 0x20000A
   998                           ;	unspecified, using default values
   999   20000A                     	org	2097162
  1000   20000A  0FFF               	dw	4095
  1001                           
  1002                           ;Config register IDLOC6 @ 0x20000C
  1003                           ;	unspecified, using default values
  1004   20000C                     	org	2097164
  1005   20000C  0FFF               	dw	4095
  1006                           
  1007                           ;Config register IDLOC7 @ 0x20000E
  1008                           ;	unspecified, using default values
  1009   20000E                     	org	2097166
  1010   20000E  0FFF               	dw	4095
  1011                           
  1012                           	psect	config
  1013                           
  1014                           ;Config register CONFIG1L @ 0x300000
  1015                           ;	External Oscillator mode Selection bits
  1016                           ;	FEXTOSC = HS, HS (crystal oscillator) above 8 MHz; PFM set to high power
  1017                           ;	Power-up default value for COSC bits
  1018                           ;	RSTOSC = EXTOSC_4PLL, EXTOSC with 4x PLL, with EXTOSC operating per FEXTOSC bits
  1019   300000                     	org	3145728
  1020   300000  AA                 	db	170
  1021                           
  1022                           ;Config register CONFIG1H @ 0x300001
  1023                           ;	unspecified, using default values
  1024                           ;	Clock Out Enable bit
  1025                           ;	CLKOUTEN = 0x1, unprogrammed default
  1026                           ;	Clock Switch Enable bit
  1027                           ;	CSWEN = 0x1, unprogrammed default
  1028                           ;	Fail-Safe Clock Monitor Enable bit
  1029                           ;	FCMEN = 0x1, unprogrammed default
  1030   300001                     	org	3145729
  1031   300001  FF                 	db	255
  1032                           
  1033                           ;Config register CONFIG2L @ 0x300002
  1034                           ;	unspecified, using default values
  1035                           ;	Master Clear Enable bit
  1036                           ;	MCLRE = 0x1, unprogrammed default
  1037                           ;	Power-up Timer Enable bit
  1038                           ;	PWRTE = 0x1, unprogrammed default
  1039                           ;	Low-power BOR enable bit
  1040                           ;	LPBOREN = 0x1, unprogrammed default
  1041                           ;	Brown-out Reset Enable bits
  1042                           ;	BOREN = 0x3, unprogrammed default
  1043   300002                     	org	3145730
  1044   300002  FF                 	db	255
  1045                           
  1046                           ;Config register CONFIG2H @ 0x300003
  1047                           ;	unspecified, using default values
  1048                           ;	Brown Out Reset Voltage selection bits
  1049                           ;	BORV = 0x3, unprogrammed default
  1050                           ;	ZCD Disable bit
  1051                           ;	ZCD = 0x1, unprogrammed default
  1052                           ;	PPSLOCK bit One-Way Set Enable bit
  1053                           ;	PPS1WAY = 0x1, unprogrammed default
  1054                           ;	Stack Full/Underflow Reset Enable bit
  1055                           ;	STVREN = 0x1, unprogrammed default
  1056                           ;	Debugger Enable bit
  1057                           ;	DEBUG = 0x1, unprogrammed default
  1058                           ;	Extended Instruction Set Enable bit
  1059                           ;	XINST = 0x1, unprogrammed default
  1060   300003                     	org	3145731
  1061   300003  FF                 	db	255
  1062                           
  1063                           ;Config register CONFIG3L @ 0x300004
  1064                           ;	WDT Period Select bits
  1065                           ;	WDTCPS = 0x1F, unprogrammed default
  1066                           ;	WDT operating mode
  1067                           ;	WDTE = OFF, WDT Disabled
  1068   300004                     	org	3145732
  1069   300004  9F                 	db	159
  1070                           
  1071                           ;Config register CONFIG3H @ 0x300005
  1072                           ;	unspecified, using default values
  1073                           ;	WDT Window Select bits
  1074                           ;	WDTCWS = 0x7, unprogrammed default
  1075                           ;	WDT input clock selector
  1076                           ;	WDTCCS = 0x7, unprogrammed default
  1077   300005                     	org	3145733
  1078   300005  FF                 	db	255
  1079                           
  1080                           ;Config register CONFIG4L @ 0x300006
  1081                           ;	unspecified, using default values
  1082                           ;	Write Protection Block 0
  1083                           ;	WRT0 = 0x1, unprogrammed default
  1084                           ;	Write Protection Block 1
  1085                           ;	WRT1 = 0x1, unprogrammed default
  1086                           ;	Write Protection Block 2
  1087                           ;	WRT2 = 0x1, unprogrammed default
  1088                           ;	Write Protection Block 3
  1089                           ;	WRT3 = 0x1, unprogrammed default
  1090                           ;	Write Protection Block 3
  1091                           ;	WRT4 = 0x1, unprogrammed default
  1092                           ;	Write Protection Block 3
  1093                           ;	WRT5 = 0x1, unprogrammed default
  1094                           ;	Write Protection Block 3
  1095                           ;	WRT6 = 0x1, unprogrammed default
  1096                           ;	Write Protection Block 3
  1097                           ;	WRT7 = 0x1, unprogrammed default
  1098   300006                     	org	3145734
  1099   300006  FF                 	db	255
  1100                           
  1101                           ;Config register CONFIG4H @ 0x300007
  1102                           ;	unspecified, using default values
  1103                           ;	Configuration Register Write Protection bit
  1104                           ;	WRTC = 0x1, unprogrammed default
  1105                           ;	Boot Block Write Protection bit
  1106                           ;	WRTB = 0x1, unprogrammed default
  1107                           ;	Data EEPROM Write Protection bit
  1108                           ;	WRTD = 0x1, unprogrammed default
  1109                           ;	Scanner Enable bit
  1110                           ;	SCANE = 0x1, unprogrammed default
  1111                           ;	Low Voltage Programming Enable bit
  1112                           ;	LVP = 0x1, unprogrammed default
  1113   300007                     	org	3145735
  1114   300007  FF                 	db	255
  1115                           
  1116                           ;Config register CONFIG5L @ 0x300008
  1117                           ;	unspecified, using default values
  1118                           ;	UserNVM Program Memory Code Protection bit
  1119                           ;	CP = 0x1, unprogrammed default
  1120                           ;	DataNVM Memory Code Protection bit
  1121                           ;	CPD = 0x1, unprogrammed default
  1122   300008                     	org	3145736
  1123   300008  FF                 	db	255
  1124                           
  1125                           ;Config register CONFIG5H @ 0x300009
  1126                           ;	unspecified, using default values
  1127   300009                     	org	3145737
  1128   300009  FF                 	db	255
  1129                           
  1130                           ;Config register CONFIG6L @ 0x30000A
  1131                           ;	unspecified, using default values
  1132                           ;	Table Read Protection Block 0
  1133                           ;	EBTR0 = 0x1, unprogrammed default
  1134                           ;	Table Read Protection Block 1
  1135                           ;	EBTR1 = 0x1, unprogrammed default
  1136                           ;	Table Read Protection Block 2
  1137                           ;	EBTR2 = 0x1, unprogrammed default
  1138                           ;	Table Read Protection Block 3
  1139                           ;	EBTR3 = 0x1, unprogrammed default
  1140                           ;	Table Read Protection Block 4
  1141                           ;	EBTR4 = 0x1, unprogrammed default
  1142                           ;	Table Read Protection Block 5
  1143                           ;	EBTR5 = 0x1, unprogrammed default
  1144                           ;	Table Read Protection Block 6
  1145                           ;	EBTR6 = 0x1, unprogrammed default
  1146                           ;	Table Read Protection Block 7
  1147                           ;	EBTR7 = 0x1, unprogrammed default
  1148   30000A                     	org	3145738
  1149   30000A  FF                 	db	255
  1150                           
  1151                           ;Config register CONFIG6H @ 0x30000B
  1152                           ;	unspecified, using default values
  1153                           ;	Boot Block Table Read Protection bit
  1154                           ;	EBTRB = 0x1, unprogrammed default
  1155   30000B                     	org	3145739
  1156   30000B  FF                 	db	255
  1157                           tosu	equ	0xFFF
  1158                           tosh	equ	0xFFE
  1159                           tosl	equ	0xFFD
  1160                           stkptr	equ	0xFFC
  1161                           pclatu	equ	0xFFB
  1162                           pclath	equ	0xFFA
  1163                           pcl	equ	0xFF9
  1164                           tblptru	equ	0xFF8
  1165                           tblptrh	equ	0xFF7
  1166                           tblptrl	equ	0xFF6
  1167                           tablat	equ	0xFF5
  1168                           prodh	equ	0xFF4
  1169                           prodl	equ	0xFF3
  1170                           indf0	equ	0xFEF
  1171                           postinc0	equ	0xFEE
  1172                           postdec0	equ	0xFED
  1173                           preinc0	equ	0xFEC
  1174                           plusw0	equ	0xFEB
  1175                           fsr0h	equ	0xFEA
  1176                           fsr0l	equ	0xFE9
  1177                           wreg	equ	0xFE8
  1178                           indf1	equ	0xFE7
  1179                           postinc1	equ	0xFE6
  1180                           postdec1	equ	0xFE5
  1181                           preinc1	equ	0xFE4
  1182                           plusw1	equ	0xFE3
  1183                           fsr1h	equ	0xFE2
  1184                           fsr1l	equ	0xFE1
  1185                           bsr	equ	0xFE0
  1186                           indf2	equ	0xFDF
  1187                           postinc2	equ	0xFDE
  1188                           postdec2	equ	0xFDD
  1189                           preinc2	equ	0xFDC
  1190                           plusw2	equ	0xFDB
  1191                           fsr2h	equ	0xFDA
  1192                           fsr2l	equ	0xFD9
  1193                           status	equ	0xFD8

Data Sizes:
    Strings     0
    Constant    0
    Data        0
    BSS         2
    Persistent  0
    Stack       0

Auto Spaces:
    Space          Size  Autos    Used
    COMRAM           94      3       5
    BANK0           160      0       0
    BANK1           256      0       0
    BANK2           256      0       0
    BANK3           256      0       0
    BANK4           256      0       0
    BANK5           256      0       0
    BANK6           256      0       0
    BANK7           256      0       0
    BANK8           256      0       0
    BANK9           256      0       0
    BANK10          256      0       0
    BANK11          256      0       0
    BANK12          256      0       0
    BANK13          234      0       0

Pointer List with Targets:

    None.

Critical Paths under _main in COMRAM

    _main->_LEDarray_disp_bin

Critical Paths under _HighISR in COMRAM

    None.

Critical Paths under _main in BANK0

    None.

Critical Paths under _HighISR in BANK0

    None.

Critical Paths under _main in BANK1

    None.

Critical Paths under _HighISR in BANK1

    None.

Critical Paths under _main in BANK2

    None.

Critical Paths under _HighISR in BANK2

    None.

Critical Paths under _main in BANK3

    None.

Critical Paths under _HighISR in BANK3

    None.

Critical Paths under _main in BANK4

    None.

Critical Paths under _HighISR in BANK4

    None.

Critical Paths under _main in BANK5

    None.

Critical Paths under _HighISR in BANK5

    None.

Critical Paths under _main in BANK6

    None.

Critical Paths under _HighISR in BANK6

    None.

Critical Paths under _main in BANK7

    None.

Critical Paths under _HighISR in BANK7

    None.

Critical Paths under _main in BANK8

    None.

Critical Paths under _HighISR in BANK8

    None.

Critical Paths under _main in BANK9

    None.

Critical Paths under _HighISR in BANK9

    None.

Critical Paths under _main in BANK10

    None.

Critical Paths under _HighISR in BANK10

    None.

Critical Paths under _main in BANK11

    None.

Critical Paths under _HighISR in BANK11

    None.

Critical Paths under _main in BANK12

    None.

Critical Paths under _HighISR in BANK12

    None.

Critical Paths under _main in BANK13

    None.

Critical Paths under _HighISR in BANK13

    None.

Call Graph Tables:

 ---------------------------------------------------------------------------------
 (Depth) Function   	        Calls       Base Space   Used Autos Params    Refs
 ---------------------------------------------------------------------------------
 (0) _main                                                 0     0      0     426
                           _ADC_init
                         _Comp1_init
                    _Interrupts_init
                  _LEDarray_disp_bin
                      _LEDarray_init
                         _Light_init
                        _Timer0_init
 ---------------------------------------------------------------------------------
 (1) _Timer0_init                                          0     0      0       0
 ---------------------------------------------------------------------------------
 (1) _Light_init                                           0     0      0       0
 ---------------------------------------------------------------------------------
 (1) _LEDarray_init                                        0     0      0       0
 ---------------------------------------------------------------------------------
 (1) _LEDarray_disp_bin                                    2     0      2     426
                                              1 COMRAM     2     0      2
 ---------------------------------------------------------------------------------
 (1) _Interrupts_init                                      0     0      0       0
 ---------------------------------------------------------------------------------
 (1) _Comp1_init                                           0     0      0       0
                           _DAC_init
 ---------------------------------------------------------------------------------
 (2) _DAC_init                                             0     0      0       0
 ---------------------------------------------------------------------------------
 (1) _ADC_init                                             0     0      0       0
 ---------------------------------------------------------------------------------
 Estimated maximum stack depth 2
 ---------------------------------------------------------------------------------
 (Depth) Function   	        Calls       Base Space   Used Autos Params    Refs
 ---------------------------------------------------------------------------------
 (3) _HighISR                                              1     1      0       0
                                              0 COMRAM     1     1      0
 ---------------------------------------------------------------------------------
 Estimated maximum stack depth 3
 ---------------------------------------------------------------------------------

 Call Graph Graphs:

 _main (ROOT)
   _ADC_init
   _Comp1_init
     _DAC_init
   _Interrupts_init
   _LEDarray_disp_bin
   _LEDarray_init
   _Light_init
   _Timer0_init

 _HighISR (ROOT)

 Address spaces:
Name               Size   Autos  Total    Cost      Usage
BIGRAM             DE9      0       0      49        0.0%
EEDATA             400      0       0       0        0.0%
BITBANK12          100      0       0      28        0.0%
BANK12             100      0       0      29        0.0%
BITBANK11          100      0       0      26        0.0%
BANK11             100      0       0      27        0.0%
BITBANK10          100      0       0      24        0.0%
BANK10             100      0       0      25        0.0%
BITBANK9           100      0       0      22        0.0%
BANK9              100      0       0      23        0.0%
BITBANK8           100      0       0      20        0.0%
BANK8              100      0       0      21        0.0%
BITBANK7           100      0       0      18        0.0%
BANK7              100      0       0      19        0.0%
BITBANK6           100      0       0      16        0.0%
BANK6              100      0       0      17        0.0%
BITBANK5           100      0       0      14        0.0%
BANK5              100      0       0      15        0.0%
BITBANK4           100      0       0      12        0.0%
BANK4              100      0       0      13        0.0%
BITBANK3           100      0       0      10        0.0%
BANK3              100      0       0      11        0.0%
BITBANK2           100      0       0       8        0.0%
BANK2              100      0       0       9        0.0%
BITBANK1           100      0       0       6        0.0%
BANK1              100      0       0       7        0.0%
BITBANK13           EA      0       0      30        0.0%
BANK13              EA      0       0      31        0.0%
BITBANK0            A0      0       0       4        0.0%
BANK0               A0      0       0       5        0.0%
BITBIGSFRlhlhhh     84      0       0      40        0.0%
BITCOMRAM           5E      0       0       0        0.0%
COMRAM              5E      3       5       1        5.3%
BITBIGSFRllhhh      5C      0       0      44        0.0%
BITBIGSFRhhll       4A      0       0      34        0.0%
BITBIGSFRlll        3A      0       0      47        0.0%
BITBIGSFRlhll       21      0       0      43        0.0%
BITBIGSFRhhlhh      1B      0       0      33        0.0%
BITBIGSFRlhhhhl     14      0       0      37        0.0%
BITBIGSFRlhlhl      11      0       0      42        0.0%
BITBIGSFRhhh         D      0       0      32        0.0%
BITBIGSFRllhl        9      0       0      46        0.0%
BITBIGSFRlhlhhl      8      0       0      41        0.0%
BITBIGSFRlhhl        6      0       0      39        0.0%
BITBIGSFRlhhhhl      3      0       0      36        0.0%
BITBIGSFRlhhhl       3      0       0      38        0.0%
BITBIGSFRhl          3      0       0      35        0.0%
BITBIGSFRllhhl       1      0       0      45        0.0%
BIGSFR               0      0       0     200        0.0%
BITSFR_3             0      0       0     200        0.0%
SFR_3                0      0       0     200        0.0%
BITSFR_2             0      0       0     200        0.0%
SFR_2                0      0       0     200        0.0%
BITSFR_1             0      0       0     200        0.0%
SFR_1                0      0       0     200        0.0%
BITSFR               0      0       0     200        0.0%
SFR                  0      0       0     200        0.0%
STACK                0      0       0       2        0.0%
NULL                 0      0       0       0        0.0%
ABS                  0      0       5      48        0.0%
DATA                 0      0       5       3        0.0%
CODE                 0      0       0       0        0.0%


Microchip Technology PIC18 Macro Assembler V2.40 build 20220703182018 
Symbol Table                                                                                   Fri Nov 04 15:17:09 2022

                       l15 01FA                         l50 00AC                         l42 01C0  
                       l51 00AE                         l60 011A                         l52 00C2  
                       l61 011C                         l53 00C4                         l62 0130  
                       l54 00D8                         l63 0132                         l55 00DA  
                       l64 0146                         l56 00EE                         l48 0096  
                       l57 00F0                         l49 0098                         l66 0148  
                       l58 0104                         l59 0106                         l93 022C  
                       l96 020E                         l99 019E          ??_Interrupts_init 0002  
                      l118 0226                        l161 01E0                        l900 01CA  
                      l902 01D4                        l840 01FC                        l904 01DE  
                      l850 01F4                        l842 0202                        l852 01F6  
                      l844 020C                        l854 01F8                        l846 01E2  
                      l848 01EC                        l880 017A                        l856 01A0  
                      l890 0194                        l882 017C                        l970 0090  
                      l892 0196                        l884 018E                        l980 00FE  
                      l972 00A6                        l894 019A                        l886 0190  
                      l982 0114                        l974 00BC                        l878 0228  
                      l888 0192                        l896 021E                        l984 012A  
                      l976 00D2                        l968 0082                        l986 0140  
                      l978 00E8                        l898 01C2                        u200 00A6  
                      u201 00A2                        u210 00BC                        u211 00B8  
                      u220 00D2                        u221 00CE                        u230 00E8  
                      u231 00E4                        u240 00FE                        u241 00FA  
                      u250 0114                        u251 0110                        u260 012A  
                      u261 0126                        u270 0140                        u190 0090  
                      u271 013C                        u191 008C                       l1010 015A  
                     l1002 014A                       l1012 0162                       l1004 014E  
                     l1014 0166                       l1006 0152                       l1008 0156  
                     _main 014A                       _hour 0004                       btemp 0006  
                     start 007E           __end_of_ADC_init 01FC           __end_of_DAC_init 0210  
          __end_of_HighISR 007E               ___param_bank 000000                 _Comp1_init 017A  
                    ?_main 0001                      _ADPCH 000F5F                      i2l126 007A  
                    i2l930 001A                      i2l932 0022                      i2l940 0044  
                    i2l942 0052                      i2l934 0026                      i2l944 0076  
                    i2l936 003A                      i2l928 000A                      i2l938 0042  
                    _TMR0H 000FD4                      _TMR0L 000FD3                      ttemp5 0007  
                    ttemp6 000A                      ttemp7 000E                      status 000FD8  
                    wtemp8 0007            __initialization 0210               __end_of_main 017A  
               _Light_init 0228                     ??_main 0004              __activetblptr 000000  
                   _ADRESH 000F64                  ??_HighISR 0001                     _TMR0IE 00714D  
                   _TMR0IF 00719D          _LEDarray_disp_bin 0082         ?_LEDarray_disp_bin 0002  
            ??_Timer0_init 0002                ?_Comp1_init 0001        ??_LEDarray_disp_bin 0004  
                   isa$std 000001                  ?_ADC_init 0001                  ?_DAC_init 0001  
__end_of_LEDarray_disp_bin 014A                 __accesstop 0060    __end_of__initialization 0214  
            ___rparam_used 000001              _LEDarray_init 01A0            _Interrupts_init 021E  
           __pcstackCOMRAM 0001                ?_Light_init 0001        __end_of_Timer0_init 01E2  
               ??_ADC_init 0002                 ??_DAC_init 0002             ?_LEDarray_init 0001  
                  i2u14_40 001A                    i2u14_41 0016                    i2u15_40 003A  
                  i2u15_41 0036                    i2u16_40 0052                    i2u16_41 004E  
                  i2u17_40 0064                    i2u17_41 005C                    i2u18_48 0066  
  __end_of_Interrupts_init 0228                    _HighISR 0008                  _ADREFbits 000F58  
                  __Hparam 0000                    __Lparam 0000                _Timer0_init 01C2  
                  __pcinit 0210                    __ramtop 0E00                    __ptext0 014A  
                  __ptext1 01C2                    __ptext2 0228                    __ptext3 01A0  
                  __ptext4 0082                    __ptext5 021E                    __ptext6 017A  
                  __ptext7 01FC                    __ptext8 01E2       end_of_initialization 0214  
          ??_LEDarray_init 0002               ??_Comp1_init 0002                  _TRISAbits 000F81  
                _TRISBbits 000F82                  _TRISFbits 000F86                  _TRISGbits 000F87  
                _TRISHbits 000F88         __end_of_Comp1_init 01A0                _CM1CON0bits 000ED0  
              _CM1CON1bits 000ED1           ?_Interrupts_init 0001               ??_Light_init 0002  
      start_initialization 0210         __end_of_Light_init 022E                __pbssCOMRAM 0004  
                 ?_HighISR 0001               ?_Timer0_init 0001                  __pintcode 0008  
                 _ADC_init 01E2                   _DAC_init 01FC                   _LATAbits 000F79  
                 _LATBbits 000F7A                   _LATFbits 000F7E                   _LATGbits 000F7F  
                 _LATHbits 000F80                   _PIR2bits 000E35                 _ADCON0bits 000F60  
               _CM1NCHbits 000ED2                 _CM1PCHbits 000ED3      __end_of_LEDarray_init 01C2  
                 __Hrparam 0000                   __Lrparam 0000                 _ANSELAbits 000E92  
               _ANSELFbits 000EB4                 _T0CON0bits 000FD5                 _T0CON1bits 000FD6  
  LEDarray_disp_bin@number 0002                   isa$xinst 000000                   int$flags 0006  
               _INTCONbits 000FF2                   intlevel2 0000               _DAC1CON0bits 000EC6  
             _DAC1CON1bits 000EC7  
